target datalayout = "e-m:e-p270:32:32-p271:32:32-p272:64:64-i64:64-i128:128-f80:128-n8:16:32:64-S128"
target triple = "x86_64-pc-linux-gnu"

%struct.AVLFG = type { [64 x i32], i32 }
%struct.FFPerlin = type { double, i32, double, [512 x i8], i32, i32 }

; Function Attrs: inlinehint nounwind uwtable
define internal i32 @av_lfg_get(ptr noundef %0) #3 {
  %2 = alloca ptr, align 8
  %3 = alloca i32, align 4
  store ptr %0, ptr %2, align 8, !tbaa !24
  call void @llvm.lifetime.start.p0(i64 4, ptr %3) #5
  %4 = load ptr, ptr %2, align 8, !tbaa !24
  %5 = getelementptr inbounds nuw %struct.AVLFG, ptr %4, i32 0, i32 0
  %6 = load ptr, ptr %2, align 8, !tbaa !24
  %7 = getelementptr inbounds nuw %struct.AVLFG, ptr %6, i32 0, i32 1
  %8 = load i32, ptr %7, align 4, !tbaa !26
  %9 = sub nsw i32 %8, 24
  %10 = and i32 %9, 63
  %11 = sext i32 %10 to i64
  %12 = getelementptr inbounds [64 x i32], ptr %5, i64 0, i64 %11
  %13 = load i32, ptr %12, align 4, !tbaa !11
  %14 = load ptr, ptr %2, align 8, !tbaa !24
  %15 = getelementptr inbounds nuw %struct.AVLFG, ptr %14, i32 0, i32 0
  %16 = load ptr, ptr %2, align 8, !tbaa !24
  %17 = getelementptr inbounds nuw %struct.AVLFG, ptr %16, i32 0, i32 1
  %18 = load i32, ptr %17, align 4, !tbaa !26
  %19 = sub nsw i32 %18, 55
  %20 = and i32 %19, 63
  %21 = sext i32 %20 to i64
  %22 = getelementptr inbounds [64 x i32], ptr %15, i64 0, i64 %21
  %23 = load i32, ptr %22, align 4, !tbaa !11
  %24 = add i32 %13, %23
  %25 = load ptr, ptr %2, align 8, !tbaa !24
  %26 = getelementptr inbounds nuw %struct.AVLFG, ptr %25, i32 0, i32 0
  %27 = load ptr, ptr %2, align 8, !tbaa !24
  %28 = getelementptr inbounds nuw %struct.AVLFG, ptr %27, i32 0, i32 1
  %29 = load i32, ptr %28, align 4, !tbaa !26
  %30 = and i32 %29, 63
  %31 = sext i32 %30 to i64
  %32 = getelementptr inbounds [64 x i32], ptr %26, i64 0, i64 %31
  store i32 %24, ptr %32, align 4, !tbaa !11
  store i32 %24, ptr %3, align 4, !tbaa !11
  %33 = load ptr, ptr %2, align 8, !tbaa !24
  %34 = getelementptr inbounds nuw %struct.AVLFG, ptr %33, i32 0, i32 1
  %35 = load i32, ptr %34, align 4, !tbaa !26
  %36 = add i32 %35, 1
  store i32 %36, ptr %34, align 4, !tbaa !26
  %37 = load i32, ptr %3, align 4, !tbaa !11
  call void @llvm.lifetime.end.p0(i64 4, ptr %3) #5
  ret i32 %37
}

; Function Attrs: nounwind uwtable
define i32 @ff_perlin_init(ptr noundef %0, double noundef %1, i32 noundef %2, double noundef %3, i32 noundef %4, i32 noundef %5) #0 {
  %7 = alloca ptr, align 8
  %8 = alloca double, align 8
  %9 = alloca i32, align 4
  %10 = alloca double, align 8
  %11 = alloca i32, align 4
  %12 = alloca i32, align 4
  %13 = alloca i32, align 4
  %14 = alloca %struct.AVLFG, align 4
  %15 = alloca [256 x i8], align 16
  %16 = alloca i32, align 4
  %17 = alloca i8, align 1
  store ptr %0, ptr %7, align 8, !tbaa !4
  store double %1, ptr %8, align 8, !tbaa !9
  store i32 %2, ptr %9, align 4, !tbaa !11
  store double %3, ptr %10, align 8, !tbaa !9
  store i32 %4, ptr %11, align 4, !tbaa !11
  store i32 %5, ptr %12, align 4, !tbaa !11
  call void @llvm.lifetime.start.p0(i64 4, ptr %13) #5
  %18 = load double, ptr %8, align 8, !tbaa !9
  %19 = load ptr, ptr %7, align 8, !tbaa !4
  %20 = getelementptr inbounds nuw %struct.FFPerlin, ptr %19, i32 0, i32 0
  store double %18, ptr %20, align 8, !tbaa !13
  %21 = load i32, ptr %9, align 4, !tbaa !11
  %22 = load ptr, ptr %7, align 8, !tbaa !4
  %23 = getelementptr inbounds nuw %struct.FFPerlin, ptr %22, i32 0, i32 1
  store i32 %21, ptr %23, align 8, !tbaa !15
  %24 = load double, ptr %10, align 8, !tbaa !9
  %25 = load ptr, ptr %7, align 8, !tbaa !4
  %26 = getelementptr inbounds nuw %struct.FFPerlin, ptr %25, i32 0, i32 2
  store double %24, ptr %26, align 8, !tbaa !16
  %27 = load i32, ptr %11, align 4, !tbaa !11
  %28 = load ptr, ptr %7, align 8, !tbaa !4
  %29 = getelementptr inbounds nuw %struct.FFPerlin, ptr %28, i32 0, i32 4
  store i32 %27, ptr %29, align 8, !tbaa !17
  %30 = load i32, ptr %12, align 4, !tbaa !11
  %31 = load ptr, ptr %7, align 8, !tbaa !4
  %32 = getelementptr inbounds nuw %struct.FFPerlin, ptr %31, i32 0, i32 5
  store i32 %30, ptr %32, align 4, !tbaa !18
  %33 = load ptr, ptr %7, align 8, !tbaa !4
  %34 = getelementptr inbounds nuw %struct.FFPerlin, ptr %33, i32 0, i32 4
  %35 = load i32, ptr %34, align 8, !tbaa !17
  %36 = icmp eq i32 %35, 1
  br i1 %36, label %37, label %56

37:                                               ; preds = %6
  store i32 0, ptr %13, align 4, !tbaa !11
  br label %38

38:                                               ; preds = %52, %37
  %39 = load i32, ptr %13, align 4, !tbaa !11
  %40 = icmp slt i32 %39, 512
  br i1 %40, label %41, label %55

41:                                               ; preds = %38
  %42 = load i32, ptr %13, align 4, !tbaa !11
  %43 = srem i32 %42, 256
  %44 = sext i32 %43 to i64
  %45 = getelementptr inbounds [256 x i8], ptr @ken_permutations, i64 0, i64 %44
  %46 = load i8, ptr %45, align 1, !tbaa !19
  %47 = load ptr, ptr %7, align 8, !tbaa !4
  %48 = getelementptr inbounds nuw %struct.FFPerlin, ptr %47, i32 0, i32 3
  %49 = load i32, ptr %13, align 4, !tbaa !11
  %50 = sext i32 %49 to i64
  %51 = getelementptr inbounds [512 x i8], ptr %48, i64 0, i64 %50
  store i8 %46, ptr %51, align 1, !tbaa !19
  br label %52

52:                                               ; preds = %41
  %53 = load i32, ptr %13, align 4, !tbaa !11
  %54 = add nsw i32 %53, 1
  store i32 %54, ptr %13, align 4, !tbaa !11
  br label %38, !llvm.loop !20

55:                                               ; preds = %38
  br label %118

56:                                               ; preds = %6
  call void @llvm.lifetime.start.p0(i64 260, ptr %14) #5
  call void @llvm.lifetime.start.p0(i64 256, ptr %15) #5
  %57 = load ptr, ptr %7, align 8, !tbaa !4
  %58 = getelementptr inbounds nuw %struct.FFPerlin, ptr %57, i32 0, i32 4
  %59 = load i32, ptr %58, align 8, !tbaa !17
  %60 = icmp eq i32 %59, 0
  br i1 %60, label %61, label %65

61:                                               ; preds = %56
  %62 = call i32 @av_get_random_seed()
  %63 = load ptr, ptr %7, align 8, !tbaa !4
  %64 = getelementptr inbounds nuw %struct.FFPerlin, ptr %63, i32 0, i32 5
  store i32 %62, ptr %64, align 4, !tbaa !18
  br label %65

65:                                               ; preds = %61, %56
  %66 = load ptr, ptr %7, align 8, !tbaa !4
  %67 = getelementptr inbounds nuw %struct.FFPerlin, ptr %66, i32 0, i32 5
  %68 = load i32, ptr %67, align 4, !tbaa !18
  call void @av_lfg_init(ptr noundef %14, i32 noundef %68)
  store i32 0, ptr %13, align 4, !tbaa !11
  br label %69

69:                                               ; preds = %78, %65
  %70 = load i32, ptr %13, align 4, !tbaa !11
  %71 = icmp slt i32 %70, 256
  br i1 %71, label %72, label %81

72:                                               ; preds = %69
  %73 = load i32, ptr %13, align 4, !tbaa !11
  %74 = trunc i32 %73 to i8
  %75 = load i32, ptr %13, align 4, !tbaa !11
  %76 = sext i32 %75 to i64
  %77 = getelementptr inbounds [256 x i8], ptr %15, i64 0, i64 %76
  store i8 %74, ptr %77, align 1, !tbaa !19
  br label %78

78:                                               ; preds = %72
  %79 = load i32, ptr %13, align 4, !tbaa !11
  %80 = add nsw i32 %79, 1
  store i32 %80, ptr %13, align 4, !tbaa !11
  br label %69, !llvm.loop !22

81:                                               ; preds = %69
  store i32 0, ptr %13, align 4, !tbaa !11
  br label %82

82:                                               ; preds = %114, %81
  %83 = load i32, ptr %13, align 4, !tbaa !11
  %84 = icmp slt i32 %83, 256
  br i1 %84, label %85, label %117

85:                                               ; preds = %82
  call void @llvm.lifetime.start.p0(i64 4, ptr %16) #5
  %86 = call i32 @av_lfg_get(ptr noundef %14)
  %87 = load i32, ptr %13, align 4, !tbaa !11
  %88 = sub nsw i32 256, %87
  %89 = urem i32 %86, %88
  store i32 %89, ptr %16, align 4, !tbaa !11
  call void @llvm.lifetime.start.p0(i64 1, ptr %17) #5
  %90 = load i32, ptr %16, align 4, !tbaa !11
  %91 = zext i32 %90 to i64
  %92 = getelementptr inbounds nuw [256 x i8], ptr %15, i64 0, i64 %91
  %93 = load i8, ptr %92, align 1, !tbaa !19
  store i8 %93, ptr %17, align 1, !tbaa !19
  %94 = load i32, ptr %13, align 4, !tbaa !11
  %95 = sub nsw i32 255, %94
  %96 = sext i32 %95 to i64
  %97 = getelementptr inbounds [256 x i8], ptr %15, i64 0, i64 %96
  %98 = load i8, ptr %97, align 1, !tbaa !19
  %99 = load i32, ptr %16, align 4, !tbaa !11
  %100 = zext i32 %99 to i64
  %101 = getelementptr inbounds nuw [256 x i8], ptr %15, i64 0, i64 %100
  store i8 %98, ptr %101, align 1, !tbaa !19
  %102 = load i8, ptr %17, align 1, !tbaa !19
  %103 = load ptr, ptr %7, align 8, !tbaa !4
  %104 = getelementptr inbounds nuw %struct.FFPerlin, ptr %103, i32 0, i32 3
  %105 = load i32, ptr %13, align 4, !tbaa !11
  %106 = add nsw i32 %105, 256
  %107 = sext i32 %106 to i64
  %108 = getelementptr inbounds [512 x i8], ptr %104, i64 0, i64 %107
  store i8 %102, ptr %108, align 1, !tbaa !19
  %109 = load ptr, ptr %7, align 8, !tbaa !4
  %110 = getelementptr inbounds nuw %struct.FFPerlin, ptr %109, i32 0, i32 3
  %111 = load i32, ptr %13, align 4, !tbaa !11
  %112 = sext i32 %111 to i64
  %113 = getelementptr inbounds [512 x i8], ptr %110, i64 0, i64 %112
  store i8 %102, ptr %113, align 1, !tbaa !19
  call void @llvm.lifetime.end.p0(i64 1, ptr %17) #5
  call void @llvm.lifetime.end.p0(i64 4, ptr %16) #5
  br label %114

114:                                              ; preds = %85
  %115 = load i32, ptr %13, align 4, !tbaa !11
  %116 = add nsw i32 %115, 1
  store i32 %116, ptr %13, align 4, !tbaa !11
  br label %82, !llvm.loop !23

117:                                              ; preds = %82
  call void @llvm.lifetime.end.p0(i64 256, ptr %15) #5
  call void @llvm.lifetime.end.p0(i64 260, ptr %14) #5
  br label %118

118:                                              ; preds = %117, %55
  call void @llvm.lifetime.end.p0(i64 4, ptr %13) #5
  ret i32 0
}