; Function Attrs: nounwind uwtable
define noundef i32 @ff_perlin_init(ptr noundef writeonly captures(none) initializes((0, 12), (16, 24), (536, 544)) %0, double noundef %1, i32 noundef %2, double noundef %3, i32 noundef %4, i32 noundef %5) local_unnamed_addr #0 {
  %7 = alloca %struct.AVLFG, align 4
  %8 = alloca [256 x i8], align 16
  store double %1, ptr %0, align 8, !tbaa !4
  %9 = getelementptr inbounds nuw i8, ptr %0, i64 8
  store i32 %2, ptr %9, align 8, !tbaa !10
  %10 = getelementptr inbounds nuw i8, ptr %0, i64 16
  store double %3, ptr %10, align 8, !tbaa !11
  %11 = getelementptr inbounds nuw i8, ptr %0, i64 536
  store i32 %4, ptr %11, align 8, !tbaa !12
  %12 = getelementptr inbounds nuw i8, ptr %0, i64 540
  store i32 %5, ptr %12, align 4, !tbaa !13
  %13 = icmp eq i32 %4, 1
  br i1 %13, label %.preheader, label %20

.preheader:                                       ; preds = %6
  %14 = getelementptr inbounds nuw i8, ptr %0, i64 24
  br label %15

15:                                               ; preds = %.preheader, %15
  %indvars.iv42 = phi i64 [ 0, %.preheader ], [ %indvars.iv.next43, %15 ]
  %16 = and i64 %indvars.iv42, 255
  %17 = getelementptr inbounds nuw [256 x i8], ptr @ken_permutations, i64 0, i64 %16
  %18 = load i8, ptr %17, align 1, !tbaa !14
  %19 = getelementptr inbounds nuw [512 x i8], ptr %14, i64 0, i64 %indvars.iv42
  store i8 %18, ptr %19, align 1, !tbaa !14
  %indvars.iv.next43 = add nuw nsw i64 %indvars.iv42, 1
  %exitcond45.not = icmp eq i64 %indvars.iv.next43, 512
  br i1 %exitcond45.not, label %.loopexit, label %15, !llvm.loop !15

20:                                               ; preds = %6
  call void @llvm.lifetime.start.p0(i64 260, ptr nonnull %7) #5
  call void @llvm.lifetime.start.p0(i64 256, ptr nonnull %8) #5
  %21 = icmp eq i32 %4, 0
  br i1 %21, label %22, label %24

22:                                               ; preds = %20
  %23 = tail call i32 @av_get_random_seed() #5
  store i32 %23, ptr %12, align 4, !tbaa !13
  br label %24

24:                                               ; preds = %22, %20
  %25 = phi i32 [ %23, %22 ], [ %5, %20 ]
  call void @av_lfg_init(ptr noundef nonnull %7, i32 noundef %25) #5
  br label %28

.preheader33:                                     ; preds = %28
  %26 = getelementptr inbounds nuw i8, ptr %7, i64 256
  %27 = getelementptr inbounds nuw i8, ptr %0, i64 24
  %.promoted = load i32, ptr %26, align 4, !tbaa !17
  br label %31

28:                                               ; preds = %24, %28
  %indvars.iv = phi i64 [ 0, %24 ], [ %indvars.iv.next, %28 ]
  %29 = trunc i64 %indvars.iv to i8
  %30 = getelementptr inbounds nuw [256 x i8], ptr %8, i64 0, i64 %indvars.iv
  store i8 %29, ptr %30, align 1, !tbaa !14
  %indvars.iv.next = add nuw nsw i64 %indvars.iv, 1
  %exitcond.not = icmp eq i64 %indvars.iv.next, 256
  br i1 %exitcond.not, label %.preheader33, label %28, !llvm.loop !19

31:                                               ; preds = %.preheader33, %31
  %indvars.iv38 = phi i64 [ 0, %.preheader33 ], [ %indvars.iv.next39, %31 ]
  %32 = phi i32 [ %.promoted, %.preheader33 ], [ %47, %31 ]
  %33 = add i32 %32, 40
  %34 = and i32 %33, 63
  %35 = zext nneg i32 %34 to i64
  %36 = getelementptr inbounds nuw [64 x i32], ptr %7, i64 0, i64 %35
  %37 = load i32, ptr %36, align 4, !tbaa !20
  %38 = add i32 %32, 9
  %39 = and i32 %38, 63
  %40 = zext nneg i32 %39 to i64
  %41 = getelementptr inbounds nuw [64 x i32], ptr %7, i64 0, i64 %40
  %42 = load i32, ptr %41, align 4, !tbaa !20
  %43 = add i32 %42, %37
  %44 = and i32 %32, 63
  %45 = zext nneg i32 %44 to i64
  %46 = getelementptr inbounds nuw [64 x i32], ptr %7, i64 0, i64 %45
  store i32 %43, ptr %46, align 4, !tbaa !20
  %47 = add i32 %32, 1
  %48 = trunc i64 %indvars.iv38 to i32
  %49 = sub i32 256, %48
  %50 = urem i32 %43, %49
  %51 = zext nneg i32 %50 to i64
  %52 = getelementptr inbounds nuw [256 x i8], ptr %8, i64 0, i64 %51
  %53 = load i8, ptr %52, align 1, !tbaa !14
  %54 = sub nuw nsw i64 255, %indvars.iv38
  %55 = getelementptr inbounds nuw [256 x i8], ptr %8, i64 0, i64 %54
  %56 = load i8, ptr %55, align 1, !tbaa !14
  store i8 %56, ptr %52, align 1, !tbaa !14
  %57 = or disjoint i64 %indvars.iv38, 256
  %58 = getelementptr inbounds nuw [512 x i8], ptr %27, i64 0, i64 %57
  store i8 %53, ptr %58, align 1, !tbaa !14
  %59 = getelementptr inbounds nuw [512 x i8], ptr %27, i64 0, i64 %indvars.iv38
  store i8 %53, ptr %59, align 1, !tbaa !14
  %indvars.iv.next39 = add nuw nsw i64 %indvars.iv38, 1
  %exitcond41.not = icmp eq i64 %indvars.iv.next39, 256
  br i1 %exitcond41.not, label %60, label %31, !llvm.loop !21

60:                                               ; preds = %31
  call void @llvm.lifetime.end.p0(i64 256, ptr nonnull %8) #5
  call void @llvm.lifetime.end.p0(i64 260, ptr nonnull %7) #5
  br label %.loopexit

.loopexit:                                        ; preds = %15, %60
  ret i32 0
}